target datalayout = "e-m:e-p270:32:32-p271:32:32-p272:64:64-i64:64-i128:128-f80:128-n8:16:32:64-S128"
target triple = "x86_64-pc-linux-gnu"

%struct.QualCost = type { double, double }
%struct.Path = type { i32, i32, ptr, ptr, ptr, i8, i8, i32, double, i32, double, double, ptr }
%struct.PathTarget = type { i32, ptr, ptr, %struct.QualCost, i32, i32 }
%struct.List = type { i32, i32, i32, ptr, [0 x %union.ListCell] }
%union.ListCell = type { ptr }
%struct.JoinCostWorkspace = type { i32, double, double, double, double, double, double, double, double, double, i32, i32, double }

@seq_page_cost = dso_local global double 1.000000e+00, align 8
@cpu_tuple_cost = dso_local global double 1.000000e-02, align 8
@cpu_operator_cost = dso_local global double 2.500000e-03, align 8
@enable_hashjoin = dso_local global i8 1, align 1
@parallel_leader_participation = external global i8, align 1

; Function Attrs: nounwind uwtable
define internal double @relation_byte_size(double noundef %0, i32 noundef %1) #0 {
  %3 = alloca double, align 8
  %4 = alloca i32, align 4
  store double %0, ptr %3, align 8
  store i32 %1, ptr %4, align 4
  %5 = load double, ptr %3, align 8
  %6 = load i32, ptr %4, align 4
  %7 = sext i32 %6 to i64
  %8 = add i64 %7, 7
  %9 = and i64 %8, -8
  %10 = add i64 %9, 24
  %11 = uitofp i64 %10 to double
  %12 = fmul double %5, %11
  ret double %12
}

; Function Attrs: nounwind uwtable
define internal double @page_size(double noundef %0, i32 noundef %1) #0 {
  %3 = alloca double, align 8
  %4 = alloca i32, align 4
  store double %0, ptr %3, align 8
  store i32 %1, ptr %4, align 4
  %5 = load double, ptr %3, align 8
  %6 = load i32, ptr %4, align 4
  %7 = call double @relation_byte_size(double noundef %5, i32 noundef %6)
  %8 = fdiv double %7, 8.192000e+03
  %9 = call double @llvm.ceil.f64(double %8)
  ret double %9
}

; Function Attrs: nounwind uwtable
define internal double @get_parallel_divisor(ptr noundef %0) #0 {
  %2 = alloca ptr, align 8
  %3 = alloca double, align 8
  %4 = alloca double, align 8
  store ptr %0, ptr %2, align 8
  call void @llvm.lifetime.start.p0(i64 8, ptr %3) #9
  %5 = load ptr, ptr %2, align 8
  %6 = getelementptr inbounds nuw %struct.Path, ptr %5, i32 0, i32 7
  %7 = load i32, ptr %6, align 4
  %8 = sitofp i32 %7 to double
  store double %8, ptr %3, align 8
  %9 = load i8, ptr @parallel_leader_participation, align 1, !range !4, !noundef !5
  %10 = trunc i8 %9 to i1
  br i1 %10, label %11, label %24

11:                                               ; preds = %1
  call void @llvm.lifetime.start.p0(i64 8, ptr %4) #9
  %12 = load ptr, ptr %2, align 8
  %13 = getelementptr inbounds nuw %struct.Path, ptr %12, i32 0, i32 7
  %14 = load i32, ptr %13, align 4
  %15 = sitofp i32 %14 to double
  %16 = call double @llvm.fmuladd.f64(double -3.000000e-01, double %15, double 1.000000e+00)
  store double %16, ptr %4, align 8
  %17 = load double, ptr %4, align 8
  %18 = fcmp ogt double %17, 0.000000e+00
  br i1 %18, label %19, label %23

19:                                               ; preds = %11
  %20 = load double, ptr %4, align 8
  %21 = load double, ptr %3, align 8
  %22 = fadd double %21, %20
  store double %22, ptr %3, align 8
  br label %23

23:                                               ; preds = %19, %11
  call void @llvm.lifetime.end.p0(i64 8, ptr %4) #9
  br label %24

24:                                               ; preds = %23, %1
  %25 = load double, ptr %3, align 8
  call void @llvm.lifetime.end.p0(i64 8, ptr %3) #9
  ret double %25
}

; Function Attrs: inlinehint nounwind uwtable
define internal i32 @list_length(ptr noundef %0) #4 {
  %2 = alloca ptr, align 8
  store ptr %0, ptr %2, align 8
  %3 = load ptr, ptr %2, align 8
  %4 = icmp ne ptr %3, null
  br i1 %4, label %5, label %9

5:                                                ; preds = %1
  %6 = load ptr, ptr %2, align 8
  %7 = getelementptr inbounds nuw %struct.List, ptr %6, i32 0, i32 1
  %8 = load i32, ptr %7, align 4
  br label %10

9:                                                ; preds = %1
  br label %10

10:                                               ; preds = %9, %5
  %11 = phi i32 [ %8, %5 ], [ 0, %9 ]
  ret i32 %11
}

; Function Attrs: nounwind uwtable
define dso_local void @initial_cost_hashjoin(ptr noundef %0, ptr noundef %1, i32 noundef %2, ptr noundef %3, ptr noundef %4, ptr noundef %5, ptr noundef %6, i1 noundef zeroext %7) #0 {
  %9 = alloca ptr, align 8
  %10 = alloca ptr, align 8
  %11 = alloca i32, align 4
  %12 = alloca ptr, align 8
  %13 = alloca ptr, align 8
  %14 = alloca ptr, align 8
  %15 = alloca ptr, align 8
  %16 = alloca i8, align 1
  %17 = alloca i32, align 4
  %18 = alloca double, align 8
  %19 = alloca double, align 8
  %20 = alloca double, align 8
  %21 = alloca double, align 8
  %22 = alloca double, align 8
  %23 = alloca i32, align 4
  %24 = alloca i32, align 4
  %25 = alloca i32, align 4
  %26 = alloca i32, align 4
  %27 = alloca i64, align 8
  %28 = alloca double, align 8
  %29 = alloca double, align 8
  store ptr %0, ptr %9, align 8
  store ptr %1, ptr %10, align 8
  store i32 %2, ptr %11, align 4
  store ptr %3, ptr %12, align 8
  store ptr %4, ptr %13, align 8
  store ptr %5, ptr %14, align 8
  store ptr %6, ptr %15, align 8
  %30 = zext i1 %7 to i8
  store i8 %30, ptr %16, align 1
  call void @llvm.lifetime.start.p0(i64 4, ptr %17) #9
  call void @llvm.lifetime.start.p0(i64 8, ptr %18) #9
  store double 0.000000e+00, ptr %18, align 8
  call void @llvm.lifetime.start.p0(i64 8, ptr %19) #9
  store double 0.000000e+00, ptr %19, align 8
  call void @llvm.lifetime.start.p0(i64 8, ptr %20) #9
  %31 = load ptr, ptr %13, align 8
  %32 = getelementptr inbounds nuw %struct.Path, ptr %31, i32 0, i32 8
  %33 = load double, ptr %32, align 8
  store double %33, ptr %20, align 8
  call void @llvm.lifetime.start.p0(i64 8, ptr %21) #9
  %34 = load ptr, ptr %14, align 8
  %35 = getelementptr inbounds nuw %struct.Path, ptr %34, i32 0, i32 8
  %36 = load double, ptr %35, align 8
  store double %36, ptr %21, align 8
  call void @llvm.lifetime.start.p0(i64 8, ptr %22) #9
  %37 = load double, ptr %21, align 8
  store double %37, ptr %22, align 8
  call void @llvm.lifetime.start.p0(i64 4, ptr %23) #9
  %38 = load ptr, ptr %12, align 8
  %39 = call i32 @list_length(ptr noundef %38)
  store i32 %39, ptr %23, align 4
  call void @llvm.lifetime.start.p0(i64 4, ptr %24) #9
  call void @llvm.lifetime.start.p0(i64 4, ptr %25) #9
  call void @llvm.lifetime.start.p0(i64 4, ptr %26) #9
  call void @llvm.lifetime.start.p0(i64 8, ptr %27) #9
  %40 = load i8, ptr @enable_hashjoin, align 1, !range !4, !noundef !5
  %41 = trunc i8 %40 to i1
  %42 = select i1 %41, i32 0, i32 1
  store i32 %42, ptr %17, align 4
  %43 = load ptr, ptr %14, align 8
  %44 = getelementptr inbounds nuw %struct.Path, ptr %43, i32 0, i32 9
  %45 = load i32, ptr %44, align 8
  %46 = load i32, ptr %17, align 4
  %47 = add i32 %46, %45
  store i32 %47, ptr %17, align 4
  %48 = load ptr, ptr %13, align 8
  %49 = getelementptr inbounds nuw %struct.Path, ptr %48, i32 0, i32 9
  %50 = load i32, ptr %49, align 8
  %51 = load i32, ptr %17, align 4
  %52 = add i32 %51, %50
  store i32 %52, ptr %17, align 4
  %53 = load ptr, ptr %13, align 8
  %54 = getelementptr inbounds nuw %struct.Path, ptr %53, i32 0, i32 10
  %55 = load double, ptr %54, align 8
  %56 = load double, ptr %18, align 8
  %57 = fadd double %56, %55
  store double %57, ptr %18, align 8
  %58 = load ptr, ptr %13, align 8
  %59 = getelementptr inbounds nuw %struct.Path, ptr %58, i32 0, i32 11
  %60 = load double, ptr %59, align 8
  %61 = load ptr, ptr %13, align 8
  %62 = getelementptr inbounds nuw %struct.Path, ptr %61, i32 0, i32 10
  %63 = load double, ptr %62, align 8
  %64 = fsub double %60, %63
  %65 = load double, ptr %19, align 8
  %66 = fadd double %65, %64
  store double %66, ptr %19, align 8
  %67 = load ptr, ptr %14, align 8
  %68 = getelementptr inbounds nuw %struct.Path, ptr %67, i32 0, i32 11
  %69 = load double, ptr %68, align 8
  %70 = load double, ptr %18, align 8
  %71 = fadd double %70, %69
  store double %71, ptr %18, align 8
  %72 = load double, ptr @cpu_operator_cost, align 8
  %73 = load i32, ptr %23, align 4
  %74 = sitofp i32 %73 to double
  %75 = load double, ptr @cpu_tuple_cost, align 8
  %76 = call double @llvm.fmuladd.f64(double %72, double %74, double %75)
  %77 = load double, ptr %21, align 8
  %78 = load double, ptr %18, align 8
  %79 = call double @llvm.fmuladd.f64(double %76, double %77, double %78)
  store double %79, ptr %18, align 8
  %80 = load double, ptr @cpu_operator_cost, align 8
  %81 = load i32, ptr %23, align 4
  %82 = sitofp i32 %81 to double
  %83 = fmul double %80, %82
  %84 = load double, ptr %20, align 8
  %85 = load double, ptr %19, align 8
  %86 = call double @llvm.fmuladd.f64(double %83, double %84, double %85)
  store double %86, ptr %19, align 8
  %87 = load i8, ptr %16, align 1, !range !4, !noundef !5
  %88 = trunc i8 %87 to i1
  br i1 %88, label %89, label %94

89:                                               ; preds = %8
  %90 = load ptr, ptr %14, align 8
  %91 = call double @get_parallel_divisor(ptr noundef %90)
  %92 = load double, ptr %22, align 8
  %93 = fmul double %92, %91
  store double %93, ptr %22, align 8
  br label %94

94:                                               ; preds = %89, %8
  %95 = load double, ptr %22, align 8
  %96 = load ptr, ptr %14, align 8
  %97 = getelementptr inbounds nuw %struct.Path, ptr %96, i32 0, i32 3
  %98 = load ptr, ptr %97, align 8
  %99 = getelementptr inbounds nuw %struct.PathTarget, ptr %98, i32 0, i32 4
  %100 = load i32, ptr %99, align 8
  %101 = load i8, ptr %16, align 1, !range !4, !noundef !5
  %102 = trunc i8 %101 to i1
  %103 = load ptr, ptr %13, align 8
  %104 = getelementptr inbounds nuw %struct.Path, ptr %103, i32 0, i32 7
  %105 = load i32, ptr %104, align 4
  call void @ExecChooseHashTableSize(double noundef %95, i32 noundef %100, i1 noundef zeroext true, i1 noundef zeroext %102, i32 noundef %105, ptr noundef %27, ptr noundef %24, ptr noundef %25, ptr noundef %26)
  %106 = load i32, ptr %25, align 4
  %107 = icmp sgt i32 %106, 1
  br i1 %107, label %108, label %133

108:                                              ; preds = %94
  call void @llvm.lifetime.start.p0(i64 8, ptr %28) #9
  %109 = load double, ptr %20, align 8
  %110 = load ptr, ptr %13, align 8
  %111 = getelementptr inbounds nuw %struct.Path, ptr %110, i32 0, i32 3
  %112 = load ptr, ptr %111, align 8
  %113 = getelementptr inbounds nuw %struct.PathTarget, ptr %112, i32 0, i32 4
  %114 = load i32, ptr %113, align 8
  %115 = call double @page_size(double noundef %109, i32 noundef %114)
  store double %115, ptr %28, align 8
  call void @llvm.lifetime.start.p0(i64 8, ptr %29) #9
  %116 = load double, ptr %21, align 8
  %117 = load ptr, ptr %14, align 8
  %118 = getelementptr inbounds nuw %struct.Path, ptr %117, i32 0, i32 3
  %119 = load ptr, ptr %118, align 8
  %120 = getelementptr inbounds nuw %struct.PathTarget, ptr %119, i32 0, i32 4
  %121 = load i32, ptr %120, align 8
  %122 = call double @page_size(double noundef %116, i32 noundef %121)
  store double %122, ptr %29, align 8
  %123 = load double, ptr @seq_page_cost, align 8
  %124 = load double, ptr %29, align 8
  %125 = load double, ptr %18, align 8
  %126 = call double @llvm.fmuladd.f64(double %123, double %124, double %125)
  store double %126, ptr %18, align 8
  %127 = load double, ptr @seq_page_cost, align 8
  %128 = load double, ptr %29, align 8
  %129 = load double, ptr %28, align 8
  %130 = call double @llvm.fmuladd.f64(double 2.000000e+00, double %129, double %128)
  %131 = load double, ptr %19, align 8
  %132 = call double @llvm.fmuladd.f64(double %127, double %130, double %131)
  store double %132, ptr %19, align 8
  call void @llvm.lifetime.end.p0(i64 8, ptr %29) #9
  call void @llvm.lifetime.end.p0(i64 8, ptr %28) #9
  br label %133

133:                                              ; preds = %108, %94
  %134 = load i32, ptr %17, align 4
  %135 = load ptr, ptr %10, align 8
  %136 = getelementptr inbounds nuw %struct.JoinCostWorkspace, ptr %135, i32 0, i32 0
  store i32 %134, ptr %136, align 8
  %137 = load double, ptr %18, align 8
  %138 = load ptr, ptr %10, align 8
  %139 = getelementptr inbounds nuw %struct.JoinCostWorkspace, ptr %138, i32 0, i32 1
  store double %137, ptr %139, align 8
  %140 = load double, ptr %18, align 8
  %141 = load double, ptr %19, align 8
  %142 = fadd double %140, %141
  %143 = load ptr, ptr %10, align 8
  %144 = getelementptr inbounds nuw %struct.JoinCostWorkspace, ptr %143, i32 0, i32 2
  store double %142, ptr %144, align 8
  %145 = load double, ptr %19, align 8
  %146 = load ptr, ptr %10, align 8
  %147 = getelementptr inbounds nuw %struct.JoinCostWorkspace, ptr %146, i32 0, i32 3
  store double %145, ptr %147, align 8
  %148 = load i32, ptr %24, align 4
  %149 = load ptr, ptr %10, align 8
  %150 = getelementptr inbounds nuw %struct.JoinCostWorkspace, ptr %149, i32 0, i32 10
  store i32 %148, ptr %150, align 8
  %151 = load i32, ptr %25, align 4
  %152 = load ptr, ptr %10, align 8
  %153 = getelementptr inbounds nuw %struct.JoinCostWorkspace, ptr %152, i32 0, i32 11
  store i32 %151, ptr %153, align 4
  %154 = load double, ptr %22, align 8
  %155 = load ptr, ptr %10, align 8
  %156 = getelementptr inbounds nuw %struct.JoinCostWorkspace, ptr %155, i32 0, i32 12
  store double %154, ptr %156, align 8
  call void @llvm.lifetime.end.p0(i64 8, ptr %27) #9
  call void @llvm.lifetime.end.p0(i64 4, ptr %26) #9
  call void @llvm.lifetime.end.p0(i64 4, ptr %25) #9
  call void @llvm.lifetime.end.p0(i64 4, ptr %24) #9
  call void @llvm.lifetime.end.p0(i64 4, ptr %23) #9
  call void @llvm.lifetime.end.p0(i64 8, ptr %22) #9
  call void @llvm.lifetime.end.p0(i64 8, ptr %21) #9
  call void @llvm.lifetime.end.p0(i64 8, ptr %20) #9
  call void @llvm.lifetime.end.p0(i64 8, ptr %19) #9
  call void @llvm.lifetime.end.p0(i64 8, ptr %18) #9
  call void @llvm.lifetime.end.p0(i64 4, ptr %17) #9
  ret void
}