; Function Attrs: nounwind uwtable
define dso_local void @initial_cost_hashjoin(ptr noundef readnone captures(none) %0, ptr noundef writeonly captures(none) initializes((0, 4), (8, 32), (80, 96)) %1, i32 noundef %2, ptr noundef readonly captures(address_is_null) %3, ptr noundef readonly captures(none) %4, ptr noundef readonly captures(none) %5, ptr noundef readnone captures(none) %6, i1 noundef zeroext %7) local_unnamed_addr #2 {
  %9 = alloca i32, align 4
  %10 = alloca i32, align 4
  %11 = alloca i32, align 4
  %12 = alloca i64, align 8
  %13 = getelementptr inbounds nuw i8, ptr %4, i64 40
  %14 = load double, ptr %13, align 8
  %15 = getelementptr inbounds nuw i8, ptr %5, i64 40
  %16 = load double, ptr %15, align 8
  %.not.i = icmp eq ptr %3, null
  br i1 %.not.i, label %list_length.exit, label %17

17:                                               ; preds = %8
  %18 = getelementptr inbounds nuw i8, ptr %3, i64 4
  %19 = load i32, ptr %18, align 4
  %20 = sitofp i32 %19 to double
  br label %list_length.exit

list_length.exit:                                 ; preds = %8, %17
  %21 = phi double [ %20, %17 ], [ 0.000000e+00, %8 ]
  call void @llvm.lifetime.start.p0(i64 4, ptr nonnull %9) #17
  call void @llvm.lifetime.start.p0(i64 4, ptr nonnull %10) #17
  call void @llvm.lifetime.start.p0(i64 4, ptr nonnull %11) #17
  call void @llvm.lifetime.start.p0(i64 8, ptr nonnull %12) #17
  %22 = load i8, ptr @enable_hashjoin, align 1, !range !4, !noundef !5
  %23 = getelementptr inbounds nuw i8, ptr %5, i64 48
  %24 = load i32, ptr %23, align 8
  %25 = getelementptr inbounds nuw i8, ptr %4, i64 48
  %26 = load i32, ptr %25, align 8
  %27 = getelementptr inbounds nuw i8, ptr %4, i64 56
  %28 = load double, ptr %27, align 8
  %29 = fadd double %28, 0.000000e+00
  %30 = getelementptr inbounds nuw i8, ptr %4, i64 64
  %31 = load double, ptr %30, align 8
  %32 = fsub double %31, %28
  %33 = fadd double %32, 0.000000e+00
  %34 = getelementptr inbounds nuw i8, ptr %5, i64 64
  %35 = load double, ptr %34, align 8
  %36 = fadd double %29, %35
  %37 = load double, ptr @cpu_operator_cost, align 8
  %38 = load double, ptr @cpu_tuple_cost, align 8
  %39 = tail call double @llvm.fmuladd.f64(double %37, double %21, double %38)
  %40 = tail call double @llvm.fmuladd.f64(double %39, double %16, double %36)
  %41 = fmul double %21, %37
  %42 = tail call double @llvm.fmuladd.f64(double %41, double %14, double %33)
  br i1 %7, label %43, label %53

43:                                               ; preds = %list_length.exit
  %44 = getelementptr i8, ptr %5, i64 36
  %.val = load i32, ptr %44, align 4
  %45 = sitofp i32 %.val to double
  %46 = load i8, ptr @parallel_leader_participation, align 1, !range !4, !noundef !5
  %47 = trunc nuw i8 %46 to i1
  br i1 %47, label %48, label %get_parallel_divisor.exit

48:                                               ; preds = %43
  %49 = tail call double @llvm.fmuladd.f64(double %45, double -3.000000e-01, double 1.000000e+00)
  %50 = fcmp ogt double %49, 0.000000e+00
  %51 = select i1 %50, double %49, double -0.000000e+00
  %.1.i = fadd double %51, %45
  br label %get_parallel_divisor.exit

get_parallel_divisor.exit:                        ; preds = %43, %48
  %.0.i = phi double [ %.1.i, %48 ], [ %45, %43 ]
  %52 = fmul double %16, %.0.i
  br label %53

53:                                               ; preds = %get_parallel_divisor.exit, %list_length.exit
  %.050 = phi double [ %52, %get_parallel_divisor.exit ], [ %16, %list_length.exit ]
  %54 = getelementptr inbounds nuw i8, ptr %5, i64 16
  %55 = load ptr, ptr %54, align 8
  %56 = getelementptr inbounds nuw i8, ptr %55, i64 40
  %57 = load i32, ptr %56, align 8
  %58 = getelementptr inbounds nuw i8, ptr %4, i64 36
  %59 = load i32, ptr %58, align 4
  call void @ExecChooseHashTableSize(double noundef %.050, i32 noundef %57, i1 noundef zeroext true, i1 noundef zeroext %7, i32 noundef %59, ptr noundef nonnull %12, ptr noundef nonnull %9, ptr noundef nonnull %10, ptr noundef nonnull %11) #17
  %60 = load i32, ptr %10, align 4
  %61 = icmp sgt i32 %60, 1
  br i1 %61, label %62, label %90

62:                                               ; preds = %53
  %63 = getelementptr inbounds nuw i8, ptr %4, i64 16
  %64 = load ptr, ptr %63, align 8
  %65 = getelementptr inbounds nuw i8, ptr %64, i64 40
  %66 = load i32, ptr %65, align 8
  %67 = sext i32 %66 to i64
  %68 = add nsw i64 %67, 7
  %69 = and i64 %68, -8
  %70 = add nsw i64 %69, 24
  %71 = uitofp i64 %70 to double
  %72 = fmul double %14, %71
  %73 = fmul double %72, 0x3F20000000000000
  %74 = call double @llvm.ceil.f64(double %73)
  %75 = load ptr, ptr %54, align 8
  %76 = getelementptr inbounds nuw i8, ptr %75, i64 40
  %77 = load i32, ptr %76, align 8
  %78 = sext i32 %77 to i64
  %79 = add nsw i64 %78, 7
  %80 = and i64 %79, -8
  %81 = add nsw i64 %80, 24
  %82 = uitofp i64 %81 to double
  %83 = fmul double %16, %82
  %84 = fmul double %83, 0x3F20000000000000
  %85 = call double @llvm.ceil.f64(double %84)
  %86 = load double, ptr @seq_page_cost, align 8
  %87 = call double @llvm.fmuladd.f64(double %86, double %85, double %40)
  %88 = call double @llvm.fmuladd.f64(double %74, double 2.000000e+00, double %85)
  %89 = call double @llvm.fmuladd.f64(double %86, double %88, double %42)
  br label %90

90:                                               ; preds = %62, %53
  %.049 = phi double [ %89, %62 ], [ %42, %53 ]
  %.0 = phi double [ %87, %62 ], [ %40, %53 ]
  %91 = xor i8 %22, 1
  %not. = zext nneg i8 %91 to i32
  %92 = add i32 %24, %not.
  %93 = add i32 %92, %26
  store i32 %93, ptr %1, align 8
  %94 = getelementptr inbounds nuw i8, ptr %1, i64 8
  store double %.0, ptr %94, align 8
  %95 = fadd double %.049, %.0
  %96 = getelementptr inbounds nuw i8, ptr %1, i64 16
  store double %95, ptr %96, align 8
  %97 = getelementptr inbounds nuw i8, ptr %1, i64 24
  store double %.049, ptr %97, align 8
  %98 = load i32, ptr %9, align 4
  %99 = getelementptr inbounds nuw i8, ptr %1, i64 80
  store i32 %98, ptr %99, align 8
  %100 = getelementptr inbounds nuw i8, ptr %1, i64 84
  store i32 %60, ptr %100, align 4
  %101 = getelementptr inbounds nuw i8, ptr %1, i64 88
  store double %.050, ptr %101, align 8
  call void @llvm.lifetime.end.p0(i64 8, ptr nonnull %12) #17
  call void @llvm.lifetime.end.p0(i64 4, ptr nonnull %11) #17
  call void @llvm.lifetime.end.p0(i64 4, ptr nonnull %10) #17
  call void @llvm.lifetime.end.p0(i64 4, ptr nonnull %9) #17
  ret void
}